; Function Attrs: mustprogress uwtable
define hidden void @_ZN18subterms_postorderC2ERK10ref_vectorI4expr11ast_managerEb(ptr noundef nonnull align 8 dereferenceable(24) initializes((0, 1), (8, 24)) %0, ptr noundef nonnull readonly align 8 captures(none) dereferenceable(16) %1, i1 noundef zeroext %2) unnamed_addr #3 align 2 personality ptr @__gxx_personality_v0 {
  %4 = zext i1 %2 to i8
  store i8 %4, ptr %0, align 8, !tbaa !104
  %5 = getelementptr inbounds nuw i8, ptr %0, i64 8
  %6 = load ptr, ptr %1, align 8, !tbaa !82
  %7 = ptrtoint ptr %6 to i64
  store i64 %7, ptr %5, align 8, !tbaa !83
  %8 = getelementptr inbounds nuw i8, ptr %0, i64 16
  store ptr null, ptr %8, align 8, !tbaa !58
  %9 = getelementptr inbounds nuw i8, ptr %1, i64 8
  br label %10

10:                                               ; preds = %_ZN15ref_vector_coreI4expr19ref_manager_wrapperIS0_11ast_managerEE9push_backEPS0_.exit.i.i, %3
  %11 = phi ptr [ %34, %_ZN15ref_vector_coreI4expr19ref_manager_wrapperIS0_11ast_managerEE9push_backEPS0_.exit.i.i ], [ null, %3 ]
  %indvars.iv.i.i = phi i64 [ %indvars.iv.next.i.i, %_ZN15ref_vector_coreI4expr19ref_manager_wrapperIS0_11ast_managerEE9push_backEPS0_.exit.i.i ], [ 0, %3 ]
  %12 = load ptr, ptr %9, align 8, !tbaa !58
  %13 = icmp eq ptr %12, null
  br i1 %13, label %_ZNK15ref_vector_coreI4expr19ref_manager_wrapperIS0_11ast_managerEE4sizeEv.exit.i.i, label %14

14:                                               ; preds = %10
  %15 = getelementptr inbounds i8, ptr %12, i64 -4
  %16 = load i32, ptr %15, align 4, !tbaa !56
  %17 = zext i32 %16 to i64
  br label %_ZNK15ref_vector_coreI4expr19ref_manager_wrapperIS0_11ast_managerEE4sizeEv.exit.i.i

_ZNK15ref_vector_coreI4expr19ref_manager_wrapperIS0_11ast_managerEE4sizeEv.exit.i.i: ; preds = %14, %10
  %.0.i.i.i.i = phi i64 [ %17, %14 ], [ 0, %10 ]
  %18 = icmp samesign ult i64 %indvars.iv.i.i, %.0.i.i.i.i
  br i1 %18, label %19, label %_ZN10ref_vectorI4expr11ast_managerEC2ERKS2_.exit

19:                                               ; preds = %_ZNK15ref_vector_coreI4expr19ref_manager_wrapperIS0_11ast_managerEE4sizeEv.exit.i.i
  %20 = getelementptr inbounds nuw ptr, ptr %12, i64 %indvars.iv.i.i
  %21 = load ptr, ptr %20, align 8, !tbaa !35
  %.not.i.i.i.i.i.i = icmp eq ptr %21, null
  br i1 %.not.i.i.i.i.i.i, label %_ZN15ref_vector_coreI4expr19ref_manager_wrapperIS0_11ast_managerEE7inc_refEPS0_.exit.i.i.i, label %22

22:                                               ; preds = %19
  %23 = getelementptr inbounds nuw i8, ptr %21, i64 8
  %24 = load i32, ptr %23, align 4, !tbaa !8
  %25 = add i32 %24, 1
  store i32 %25, ptr %23, align 4, !tbaa !8
  br label %_ZN15ref_vector_coreI4expr19ref_manager_wrapperIS0_11ast_managerEE7inc_refEPS0_.exit.i.i.i

_ZN15ref_vector_coreI4expr19ref_manager_wrapperIS0_11ast_managerEE7inc_refEPS0_.exit.i.i.i: ; preds = %22, %19
  %26 = icmp eq ptr %11, null
  br i1 %26, label %33, label %27

27:                                               ; preds = %_ZN15ref_vector_coreI4expr19ref_manager_wrapperIS0_11ast_managerEE7inc_refEPS0_.exit.i.i.i
  %28 = getelementptr inbounds i8, ptr %11, i64 -4
  %29 = load i32, ptr %28, align 4, !tbaa !56
  %30 = getelementptr inbounds i8, ptr %11, i64 -8
  %31 = load i32, ptr %30, align 4, !tbaa !56
  %32 = icmp eq i32 %29, %31
  br i1 %32, label %33, label %_ZN15ref_vector_coreI4expr19ref_manager_wrapperIS0_11ast_managerEE9push_backEPS0_.exit.i.i

33:                                               ; preds = %27, %_ZN15ref_vector_coreI4expr19ref_manager_wrapperIS0_11ast_managerEE7inc_refEPS0_.exit.i.i.i
  invoke void @_ZN6vectorIP4exprLb0EjE13expand_vectorEv(ptr noundef nonnull align 8 dereferenceable(8) %8)
          to label %.noexc.i unwind label %40

.noexc.i:                                         ; preds = %33
  %.pre.i.i.i.i = load ptr, ptr %8, align 8, !tbaa !58
  %.phi.trans.insert.i.i.i.i = getelementptr inbounds i8, ptr %.pre.i.i.i.i, i64 -4
  %.pre2.i.i.i.i = load i32, ptr %.phi.trans.insert.i.i.i.i, align 4, !tbaa !56
  br label %_ZN15ref_vector_coreI4expr19ref_manager_wrapperIS0_11ast_managerEE9push_backEPS0_.exit.i.i

_ZN15ref_vector_coreI4expr19ref_manager_wrapperIS0_11ast_managerEE9push_backEPS0_.exit.i.i: ; preds = %.noexc.i, %27
  %34 = phi ptr [ %.pre.i.i.i.i, %.noexc.i ], [ %11, %27 ]
  %35 = phi i32 [ %.pre2.i.i.i.i, %.noexc.i ], [ %29, %27 ]
  %36 = getelementptr inbounds i8, ptr %34, i64 -4
  %37 = zext i32 %35 to i64
  %38 = getelementptr inbounds nuw ptr, ptr %34, i64 %37
  store ptr %21, ptr %38, align 8, !tbaa !35
  %39 = add i32 %35, 1
  store i32 %39, ptr %36, align 4, !tbaa !56
  %indvars.iv.next.i.i = add nuw nsw i64 %indvars.iv.i.i, 1
  br label %10, !llvm.loop !84

40:                                               ; preds = %33
  %41 = landingpad { ptr, i32 }
          cleanup
  tail call void @_ZN15ref_vector_coreI4expr19ref_manager_wrapperIS0_11ast_managerEED2Ev(ptr noundef nonnull align 8 dereferenceable(16) %5) #24
  resume { ptr, i32 } %41

_ZN10ref_vectorI4expr11ast_managerEC2ERKS2_.exit: ; preds = %_ZNK15ref_vector_coreI4expr19ref_manager_wrapperIS0_11ast_managerEE4sizeEv.exit.i.i
  ret void
}